; Function Attrs: mustprogress nofree norecurse nounwind willreturn memory(argmem: readwrite) uwtable
define zeroext i1 @WasmEdge_ConfigureIsForceInterpreter(ptr noundef readonly %0) local_unnamed_addr #13 {
  %.not = icmp eq ptr %0, null
  br i1 %.not, label %6, label %2

2:                                                ; preds = %1
  %3 = getelementptr inbounds i8, ptr %0, i64 141
  %4 = load atomic i8, ptr %3 monotonic, align 1
  %5 = trunc i8 %4 to i1
  br label %6

6:                                                ; preds = %1, %2
  %.0 = phi i1 [ %5, %2 ], [ false, %1 ]
  ret i1 %.0
}